; Function Attrs: mustprogress nofree nosync nounwind willreturn memory(read, inaccessiblemem: none) uwtable
define internal fastcc noundef zeroext i1 @_ZN5arrow12_GLOBAL__N_110mayHaveNaNERKNS_8DataTypeE(ptr noundef nonnull readonly align 8 captures(none) dereferenceable(72) %0) unnamed_addr #5 {
  %2 = getelementptr inbounds nuw i8, ptr %0, i64 48
  %3 = getelementptr inbounds nuw i8, ptr %0, i64 56
  %4 = load ptr, ptr %3, align 8, !tbaa !141
  %5 = load ptr, ptr %2, align 8, !tbaa !144
  %6 = ptrtoint ptr %4 to i64
  %7 = ptrtoint ptr %5 to i64
  %8 = sub i64 %6, %7
  %9 = and i64 %8, 68719476720
  %10 = icmp eq i64 %9, 0
  br i1 %10, label %11, label %14

11:                                               ; preds = %1
  %12 = getelementptr inbounds nuw i8, ptr %0, i64 40
  %13 = load i32, ptr %12, align 8, !tbaa !145
  %.off.i = add i32 %13, -10
  %switch.i = icmp ult i32 %.off.i, 3
  br label %.loopexit

14:                                               ; preds = %1
  %.not13.not = icmp eq ptr %5, %4
  br i1 %.not13.not, label %.loopexit, label %.lr.ph

.lr.ph:                                           ; preds = %14, %.lr.ph
  %.sroa.010.014 = phi ptr [ %19, %.lr.ph ], [ %5, %14 ]
  %15 = load ptr, ptr %.sroa.010.014, align 8, !tbaa !159
  %16 = getelementptr inbounds nuw i8, ptr %15, i64 56
  %17 = load ptr, ptr %16, align 8, !tbaa !38
  %18 = tail call fastcc noundef zeroext i1 @_ZN5arrow12_GLOBAL__N_110mayHaveNaNERKNS_8DataTypeE(ptr noundef nonnull align 8 dereferenceable(72) %17)
  %19 = getelementptr inbounds nuw i8, ptr %.sroa.010.014, i64 16
  %.not.not = icmp eq ptr %19, %4
  %or.cond = select i1 %18, i1 true, i1 %.not.not
  br i1 %or.cond, label %.loopexit, label %.lr.ph

.loopexit:                                        ; preds = %.lr.ph, %14, %11
  %.0 = phi i1 [ %switch.i, %11 ], [ false, %14 ], [ %18, %.lr.ph ]
  ret i1 %.0
}